; Function Attrs: mustprogress uwtable
define hidden noundef ptr @_ZN19arith_rewriter_core6coerceEP4exprP4sort(ptr nocapture noundef nonnull readonly align 8 dereferenceable(35) %this, ptr noundef nonnull %x, ptr nocapture noundef readonly %s) local_unnamed_addr #3 align 2 {
entry:
  %m_util = getelementptr inbounds i8, ptr %this, i64 8
  %call.i = tail call noundef ptr @_ZNK4expr8get_sortEv(ptr noundef nonnull align 4 dereferenceable(16) %x)
  %m_info.i.i.i.i.i = getelementptr inbounds i8, ptr %call.i, i64 24
  %0 = load ptr, ptr %m_info.i.i.i.i.i, align 8
  %cmp.i.i.i.i.i = icmp eq ptr %0, null
  br i1 %cmp.i.i.i.i.i, label %if.end, label %_ZNK4decl13get_family_idEv.exit.thread.i.i.i.i

_ZNK4decl13get_family_idEv.exit.thread.i.i.i.i:   ; preds = %entry
  %1 = load i32, ptr %0, align 8
  %cmp6.i.i.i.i = icmp eq i32 %1, 5
  br i1 %cmp6.i.i.i.i, label %_ZNK17arith_recognizers6is_intEPK4expr.exit, label %if.end

_ZNK17arith_recognizers6is_intEPK4expr.exit:      ; preds = %_ZNK4decl13get_family_idEv.exit.thread.i.i.i.i
  %m_kind.i.i.i.i.i.i = getelementptr inbounds i8, ptr %0, i64 4
  %2 = load i32, ptr %m_kind.i.i.i.i.i.i, align 4
  %cmp3.i.i.i.i = icmp eq i32 %2, 1
  br i1 %cmp3.i.i.i.i, label %land.lhs.true, label %if.end

land.lhs.true:                                    ; preds = %_ZNK17arith_recognizers6is_intEPK4expr.exit
  %m_info.i.i.i.i = getelementptr inbounds i8, ptr %s, i64 24
  %3 = load ptr, ptr %m_info.i.i.i.i, align 8
  %cmp.i.i.i.i = icmp eq ptr %3, null
  br i1 %cmp.i.i.i.i, label %if.end, label %_ZNK4decl13get_family_idEv.exit.thread.i.i.i

_ZNK4decl13get_family_idEv.exit.thread.i.i.i:     ; preds = %land.lhs.true
  %4 = load i32, ptr %3, align 8
  %cmp6.i.i.i = icmp eq i32 %4, 5
  br i1 %cmp6.i.i.i, label %_ZNK17arith_recognizers7is_realEPK4sort.exit, label %if.end

_ZNK17arith_recognizers7is_realEPK4sort.exit:     ; preds = %_ZNK4decl13get_family_idEv.exit.thread.i.i.i
  %m_kind.i.i.i.i.i = getelementptr inbounds i8, ptr %3, i64 4
  %5 = load i32, ptr %m_kind.i.i.i.i.i, align 4
  %cmp3.i.i.i = icmp eq i32 %5, 0
  br i1 %cmp3.i.i.i, label %return.sink.split, label %if.end

if.end:                                           ; preds = %land.lhs.true, %_ZNK4decl13get_family_idEv.exit.thread.i.i.i, %entry, %_ZNK4decl13get_family_idEv.exit.thread.i.i.i.i, %_ZNK17arith_recognizers7is_realEPK4sort.exit, %_ZNK17arith_recognizers6is_intEPK4expr.exit
  %call.i7 = tail call noundef ptr @_ZNK4expr8get_sortEv(ptr noundef nonnull align 4 dereferenceable(16) %x)
  %m_info.i.i.i.i.i8 = getelementptr inbounds i8, ptr %call.i7, i64 24
  %6 = load ptr, ptr %m_info.i.i.i.i.i8, align 8
  %cmp.i.i.i.i.i9 = icmp eq ptr %6, null
  br i1 %cmp.i.i.i.i.i9, label %return, label %_ZNK4decl13get_family_idEv.exit.thread.i.i.i.i10

_ZNK4decl13get_family_idEv.exit.thread.i.i.i.i10: ; preds = %if.end
  %7 = load i32, ptr %6, align 8
  %cmp6.i.i.i.i11 = icmp eq i32 %7, 5
  br i1 %cmp6.i.i.i.i11, label %_ZNK17arith_recognizers7is_realEPK4expr.exit, label %return

_ZNK17arith_recognizers7is_realEPK4expr.exit:     ; preds = %_ZNK4decl13get_family_idEv.exit.thread.i.i.i.i10
  %m_kind.i.i.i.i.i.i13 = getelementptr inbounds i8, ptr %6, i64 4
  %8 = load i32, ptr %m_kind.i.i.i.i.i.i13, align 4
  %cmp3.i.i.i.i14 = icmp eq i32 %8, 0
  br i1 %cmp3.i.i.i.i14, label %land.lhs.true8, label %return

land.lhs.true8:                                   ; preds = %_ZNK17arith_recognizers7is_realEPK4expr.exit
  %m_info.i.i.i.i15 = getelementptr inbounds i8, ptr %s, i64 24
  %9 = load ptr, ptr %m_info.i.i.i.i15, align 8
  %cmp.i.i.i.i16 = icmp eq ptr %9, null
  br i1 %cmp.i.i.i.i16, label %return, label %_ZNK4decl13get_family_idEv.exit.thread.i.i.i17

_ZNK4decl13get_family_idEv.exit.thread.i.i.i17:   ; preds = %land.lhs.true8
  %10 = load i32, ptr %9, align 8
  %cmp6.i.i.i18 = icmp eq i32 %10, 5
  br i1 %cmp6.i.i.i18, label %_ZNK17arith_recognizers6is_intEPK4sort.exit, label %return

_ZNK17arith_recognizers6is_intEPK4sort.exit:      ; preds = %_ZNK4decl13get_family_idEv.exit.thread.i.i.i17
  %m_kind.i.i.i.i.i20 = getelementptr inbounds i8, ptr %9, i64 4
  %11 = load i32, ptr %m_kind.i.i.i.i.i20, align 4
  %cmp3.i.i.i21 = icmp eq i32 %11, 1
  br i1 %cmp3.i.i.i21, label %return.sink.split, label %return

return.sink.split:                                ; preds = %_ZNK17arith_recognizers6is_intEPK4sort.exit, %_ZNK17arith_recognizers7is_realEPK4sort.exit
  %.sink23 = phi i32 [ 18, %_ZNK17arith_recognizers7is_realEPK4sort.exit ], [ 19, %_ZNK17arith_recognizers6is_intEPK4sort.exit ]
  %12 = load ptr, ptr %m_util, align 8
  %call.i22 = tail call noundef ptr @_ZN11ast_manager6mk_appEiiP4expr(ptr noundef nonnull align 8 dereferenceable(976) %12, i32 noundef 5, i32 noundef %.sink23, ptr noundef nonnull %x)
  br label %return

return:                                           ; preds = %return.sink.split, %land.lhs.true8, %_ZNK4decl13get_family_idEv.exit.thread.i.i.i17, %if.end, %_ZNK4decl13get_family_idEv.exit.thread.i.i.i.i10, %_ZNK17arith_recognizers7is_realEPK4expr.exit, %_ZNK17arith_recognizers6is_intEPK4sort.exit
  %retval.0 = phi ptr [ %x, %_ZNK17arith_recognizers6is_intEPK4sort.exit ], [ %x, %_ZNK17arith_recognizers7is_realEPK4expr.exit ], [ %x, %_ZNK4decl13get_family_idEv.exit.thread.i.i.i.i10 ], [ %x, %if.end ], [ %x, %_ZNK4decl13get_family_idEv.exit.thread.i.i.i17 ], [ %x, %land.lhs.true8 ], [ %call.i22, %return.sink.split ]
  ret ptr %retval.0
}